; Function Attrs: nounwind uwtable
define range(i32 0, 2) i32 @Gia_ManLevelWithBoxes_rec(ptr noundef %0, ptr noundef %1) local_unnamed_addr #0 {
  %3 = getelementptr inbounds nuw i8, ptr %0, i64 616
  %4 = load ptr, ptr %3, align 8, !tbaa !65
  %5 = getelementptr i8, ptr %0, i64 32
  %.val.i = load ptr, ptr %5, align 8, !tbaa !39
  %6 = ptrtoint ptr %1 to i64
  %7 = ptrtoint ptr %.val.i to i64
  %8 = sub i64 %6, %7
  %9 = sdiv exact i64 %8, 12
  %sext.i = shl i64 %9, 32
  %10 = ashr exact i64 %sext.i, 30
  %11 = getelementptr inbounds i8, ptr %4, i64 %10
  %12 = load i32, ptr %11, align 4, !tbaa !33
  %13 = getelementptr inbounds nuw i8, ptr %0, i64 176
  %14 = load i32, ptr %13, align 8, !tbaa !66
  %.not = icmp eq i32 %12, %14
  br i1 %.not, label %37, label %15

15:                                               ; preds = %2
  store i32 %14, ptr %11, align 4, !tbaa !33
  %.val = load i64, ptr %1, align 4
  %16 = and i64 %.val, 2684354559
  %narrow.i.not = icmp eq i64 %16, 2684354559
  br i1 %narrow.i.not, label %37, label %17

17:                                               ; preds = %15
  %18 = getelementptr i8, ptr %0, i64 208
  %.val24 = load ptr, ptr %18, align 8, !tbaa !68
  %.not.i = icmp eq ptr %.val24, null
  br i1 %.not.i, label %Gia_ObjSibl.exit.thread, label %Gia_ObjSibl.exit

Gia_ObjSibl.exit:                                 ; preds = %17
  %19 = getelementptr inbounds i8, ptr %.val24, i64 %10
  %20 = load i32, ptr %19, align 4, !tbaa !33
  %.not19 = icmp eq i32 %20, 0
  br i1 %.not19, label %Gia_ObjSibl.exit.thread, label %Gia_ObjSiblObj.exit

Gia_ObjSiblObj.exit:                              ; preds = %Gia_ObjSibl.exit
  %21 = sext i32 %20 to i64
  %22 = getelementptr inbounds %struct.Gia_Obj_t_, ptr %.val.i, i64 %21
  %23 = tail call i32 @Gia_ManLevelWithBoxes_rec(ptr noundef nonnull %0, ptr noundef nonnull %22)
  %.pre = load i64, ptr %1, align 4
  br label %Gia_ObjSibl.exit.thread

Gia_ObjSibl.exit.thread:                          ; preds = %17, %Gia_ObjSiblObj.exit, %Gia_ObjSibl.exit
  %24 = phi i64 [ %.val, %17 ], [ %.pre, %Gia_ObjSiblObj.exit ], [ %.val, %Gia_ObjSibl.exit ]
  %25 = and i64 %24, 536870911
  %26 = sub nsw i64 0, %25
  %27 = getelementptr inbounds %struct.Gia_Obj_t_, ptr %1, i64 %26
  %28 = tail call i32 @Gia_ManLevelWithBoxes_rec(ptr noundef nonnull %0, ptr noundef nonnull %27)
  %.not20 = icmp eq i32 %28, 0
  br i1 %.not20, label %29, label %37

29:                                               ; preds = %Gia_ObjSibl.exit.thread
  %30 = load i64, ptr %1, align 4
  %31 = lshr i64 %30, 32
  %32 = and i64 %31, 536870911
  %33 = sub nsw i64 0, %32
  %34 = getelementptr inbounds %struct.Gia_Obj_t_, ptr %1, i64 %33
  %35 = tail call i32 @Gia_ManLevelWithBoxes_rec(ptr noundef nonnull %0, ptr noundef nonnull %34)
  %.not21 = icmp eq i32 %35, 0
  br i1 %.not21, label %36, label %37

36:                                               ; preds = %29
  tail call fastcc void @Gia_ObjSetAndLevel(ptr noundef nonnull %0, ptr noundef nonnull %1)
  br label %37

37:                                               ; preds = %29, %Gia_ObjSibl.exit.thread, %15, %2, %36
  %.0 = phi i32 [ 0, %36 ], [ 0, %2 ], [ 1, %15 ], [ 1, %Gia_ObjSibl.exit.thread ], [ 1, %29 ]
  ret i32 %.0
}